; Function Attrs: mustprogress nofree norecurse nosync nounwind willreturn memory(write, argmem: readwrite, inaccessiblemem: none) uwtable
define void @_ZN3gmx11StopHandlerC2ENS_6compat8not_nullIPNS_16SimulationSignalEEEbSt6vectorISt8functionIFNS_10StopSignalEvEESaISA_EEb(ptr nocapture noundef nonnull align 8 dereferenceable(40) %0, ptr %1, i1 noundef zeroext %2, ptr nocapture noundef %3, i1 noundef zeroext %4) unnamed_addr #0 align 2 {
  %6 = zext i1 %4 to i8
  store ptr %1, ptr %0, align 8
  %7 = getelementptr inbounds i8, ptr %0, i64 8
  %8 = load ptr, ptr %3, align 8
  store ptr %8, ptr %7, align 8
  %9 = getelementptr inbounds i8, ptr %0, i64 16
  %10 = getelementptr inbounds i8, ptr %3, i64 8
  %11 = load ptr, ptr %10, align 8
  store ptr %11, ptr %9, align 8
  %12 = getelementptr inbounds i8, ptr %0, i64 24
  %13 = getelementptr inbounds i8, ptr %3, i64 16
  %14 = load ptr, ptr %13, align 8
  store ptr %14, ptr %12, align 8
  tail call void @llvm.memset.p0.i64(ptr noundef nonnull align 8 dereferenceable(24) %3, i8 0, i64 24, i1 false)
  %15 = getelementptr inbounds i8, ptr %0, i64 32
  store i8 %6, ptr %15, align 8
  br i1 %2, label %16, label %19

16:                                               ; preds = %5
  %17 = load ptr, ptr %0, align 8
  %18 = getelementptr inbounds i8, ptr %17, i64 2
  store i8 0, ptr %18, align 1
  br label %19

19:                                               ; preds = %16, %5
  ret void
}